target datalayout = "e-m:e-p270:32:32-p271:32:32-p272:64:64-i64:64-i128:128-f80:128-n8:16:32:64-S128"
target triple = "x86_64-pc-linux-gnu"

%struct.cli_hashtable = type { ptr, i64, i64, i64 }
%struct.cli_map = type { %struct.cli_hashtable, %union.anon.0, i32, i32, i32, i32, i32 }
%union.anon.0 = type { ptr }
%struct.cli_map_value = type { ptr, i32 }

@.str.23 = private unnamed_addr constant [52 x i8] c"hashtab.c: Unable to allocate  memory for v->value\0A\00", align 1

; Function Attrs: nounwind uwtable
define i32 @cli_map_setvalue(ptr noundef %0, ptr noundef %1, i32 noundef %2) #0 {
  %4 = alloca i32, align 4
  %5 = alloca ptr, align 8
  %6 = alloca ptr, align 8
  %7 = alloca i32, align 4
  %8 = alloca ptr, align 8
  store ptr %0, ptr %5, align 8
  store ptr %1, ptr %6, align 8
  store i32 %2, ptr %7, align 4
  %9 = load ptr, ptr %5, align 8
  %10 = getelementptr inbounds %struct.cli_map, ptr %9, i32 0, i32 4
  %11 = load i32, ptr %10, align 8
  %12 = icmp ne i32 %11, 0
  br i1 %12, label %13, label %19

13:                                               ; preds = %3
  %14 = load ptr, ptr %5, align 8
  %15 = getelementptr inbounds %struct.cli_map, ptr %14, i32 0, i32 4
  %16 = load i32, ptr %15, align 8
  %17 = load i32, ptr %7, align 4
  %18 = icmp ne i32 %16, %17
  br i1 %18, label %32, label %19

19:                                               ; preds = %13, %3
  %20 = load ptr, ptr %5, align 8
  %21 = getelementptr inbounds %struct.cli_map, ptr %20, i32 0, i32 5
  %22 = load i32, ptr %21, align 4
  %23 = load ptr, ptr %5, align 8
  %24 = getelementptr inbounds %struct.cli_map, ptr %23, i32 0, i32 2
  %25 = load i32, ptr %24, align 8
  %26 = icmp uge i32 %22, %25
  br i1 %26, label %32, label %27

27:                                               ; preds = %19
  %28 = load ptr, ptr %5, align 8
  %29 = getelementptr inbounds %struct.cli_map, ptr %28, i32 0, i32 5
  %30 = load i32, ptr %29, align 4
  %31 = icmp slt i32 %30, 0
  br i1 %31, label %32, label %33

32:                                               ; preds = %27, %19, %13
  store i32 3, ptr %4, align 4
  br label %93

33:                                               ; preds = %27
  %34 = load ptr, ptr %5, align 8
  %35 = getelementptr inbounds %struct.cli_map, ptr %34, i32 0, i32 4
  %36 = load i32, ptr %35, align 8
  %37 = icmp ne i32 %36, 0
  br i1 %37, label %38, label %54

38:                                               ; preds = %33
  %39 = load ptr, ptr %5, align 8
  %40 = getelementptr inbounds %struct.cli_map, ptr %39, i32 0, i32 1
  %41 = load ptr, ptr %40, align 8
  %42 = load ptr, ptr %5, align 8
  %43 = getelementptr inbounds %struct.cli_map, ptr %42, i32 0, i32 5
  %44 = load i32, ptr %43, align 4
  %45 = load ptr, ptr %5, align 8
  %46 = getelementptr inbounds %struct.cli_map, ptr %45, i32 0, i32 4
  %47 = load i32, ptr %46, align 8
  %48 = mul nsw i32 %44, %47
  %49 = sext i32 %48 to i64
  %50 = getelementptr inbounds i8, ptr %41, i64 %49
  %51 = load ptr, ptr %6, align 8
  %52 = load i32, ptr %7, align 4
  %53 = sext i32 %52 to i64
  call void @llvm.memcpy.p0.p0.i64(ptr align 1 %50, ptr align 1 %51, i64 %53, i1 false)
  br label %92

54:                                               ; preds = %33
  %55 = load ptr, ptr %5, align 8
  %56 = getelementptr inbounds %struct.cli_map, ptr %55, i32 0, i32 1
  %57 = load ptr, ptr %56, align 8
  %58 = load ptr, ptr %5, align 8
  %59 = getelementptr inbounds %struct.cli_map, ptr %58, i32 0, i32 5
  %60 = load i32, ptr %59, align 4
  %61 = sext i32 %60 to i64
  %62 = getelementptr inbounds %struct.cli_map_value, ptr %57, i64 %61
  store ptr %62, ptr %8, align 8
  %63 = load ptr, ptr %8, align 8
  %64 = getelementptr inbounds %struct.cli_map_value, ptr %63, i32 0, i32 0
  %65 = load ptr, ptr %64, align 8
  %66 = icmp ne ptr %65, null
  br i1 %66, label %67, label %71

67:                                               ; preds = %54
  %68 = load ptr, ptr %8, align 8
  %69 = getelementptr inbounds %struct.cli_map_value, ptr %68, i32 0, i32 0
  %70 = load ptr, ptr %69, align 8
  call void @free(ptr noundef %70) #7
  br label %71

71:                                               ; preds = %67, %54
  %72 = load i32, ptr %7, align 4
  %73 = sext i32 %72 to i64
  %74 = call ptr @cli_max_malloc(i64 noundef %73)
  %75 = load ptr, ptr %8, align 8
  %76 = getelementptr inbounds %struct.cli_map_value, ptr %75, i32 0, i32 0
  store ptr %74, ptr %76, align 8
  %77 = load ptr, ptr %8, align 8
  %78 = getelementptr inbounds %struct.cli_map_value, ptr %77, i32 0, i32 0
  %79 = load ptr, ptr %78, align 8
  %80 = icmp ne ptr %79, null
  br i1 %80, label %82, label %81

81:                                               ; preds = %71
  call void (ptr, ...) @cli_errmsg(ptr noundef @.str.23)
  store i32 20, ptr %4, align 4
  br label %93

82:                                               ; preds = %71
  %83 = load ptr, ptr %8, align 8
  %84 = getelementptr inbounds %struct.cli_map_value, ptr %83, i32 0, i32 0
  %85 = load ptr, ptr %84, align 8
  %86 = load ptr, ptr %6, align 8
  %87 = load i32, ptr %7, align 4
  %88 = sext i32 %87 to i64
  call void @llvm.memcpy.p0.p0.i64(ptr align 1 %85, ptr align 1 %86, i64 %88, i1 false)
  %89 = load i32, ptr %7, align 4
  %90 = load ptr, ptr %8, align 8
  %91 = getelementptr inbounds %struct.cli_map_value, ptr %90, i32 0, i32 1
  store i32 %89, ptr %91, align 8
  br label %92

92:                                               ; preds = %82, %38
  store i32 0, ptr %4, align 4
  br label %93

93:                                               ; preds = %92, %81, %32
  %94 = load i32, ptr %4, align 4
  ret i32 %94
}