; Function Attrs: nounwind uwtable
define noundef i32 @cli_map_setvalue(ptr nocapture noundef readonly %0, ptr nocapture noundef readonly %1, i32 noundef %2) local_unnamed_addr #0 {
  %4 = getelementptr inbounds i8, ptr %0, i64 48
  %5 = load i32, ptr %4, align 8
  %.not = icmp eq i32 %5, 0
  %.not29 = icmp eq i32 %5, %2
  %or.cond = or i1 %.not, %.not29
  br i1 %or.cond, label %6, label %31

6:                                                ; preds = %3
  %7 = getelementptr inbounds i8, ptr %0, i64 52
  %8 = load i32, ptr %7, align 4
  %9 = getelementptr inbounds i8, ptr %0, i64 40
  %10 = load i32, ptr %9, align 8
  %.not30 = icmp uge i32 %8, %10
  %11 = icmp slt i32 %8, 0
  %or.cond34 = or i1 %11, %.not30
  br i1 %or.cond34, label %31, label %12

12:                                               ; preds = %6
  %13 = getelementptr inbounds i8, ptr %0, i64 32
  %14 = load ptr, ptr %13, align 8
  br i1 %.not, label %20, label %15

15:                                               ; preds = %12
  %16 = mul nsw i32 %8, %5
  %17 = sext i32 %16 to i64
  %18 = getelementptr inbounds i8, ptr %14, i64 %17
  %19 = sext i32 %2 to i64
  tail call void @llvm.memcpy.p0.p0.i64(ptr align 1 %18, ptr align 1 %1, i64 %19, i1 false)
  br label %31

20:                                               ; preds = %12
  %21 = zext nneg i32 %8 to i64
  %22 = getelementptr inbounds %struct.cli_map_value, ptr %14, i64 %21
  %23 = load ptr, ptr %22, align 8
  %.not32 = icmp eq ptr %23, null
  br i1 %.not32, label %25, label %24

24:                                               ; preds = %20
  tail call void @free(ptr noundef nonnull %23) #18
  br label %25

25:                                               ; preds = %24, %20
  %26 = sext i32 %2 to i64
  %27 = tail call ptr @cli_max_malloc(i64 noundef %26) #18
  store ptr %27, ptr %22, align 8
  %.not33 = icmp eq ptr %27, null
  br i1 %.not33, label %28, label %29

28:                                               ; preds = %25
  tail call void (ptr, ...) @cli_errmsg(ptr noundef nonnull @.str.23) #18
  br label %31

29:                                               ; preds = %25
  tail call void @llvm.memcpy.p0.p0.i64(ptr nonnull align 1 %27, ptr align 1 %1, i64 %26, i1 false)
  %30 = getelementptr inbounds i8, ptr %22, i64 8
  store i32 %2, ptr %30, align 8
  br label %31

31:                                               ; preds = %15, %29, %6, %3, %28
  %.0 = phi i32 [ 20, %28 ], [ 3, %3 ], [ 3, %6 ], [ 0, %29 ], [ 0, %15 ]
  ret i32 %.0
}